target datalayout = "e-m:e-p270:32:32-p271:32:32-p272:64:64-i64:64-i128:128-f80:128-n8:16:32:64-S128"
target triple = "x86_64-pc-linux-gnu"

%struct._generic_N_Vector = type { ptr, ptr, ptr }
%struct._N_VectorContent_Serial = type { i64, i32, ptr }

; Function Attrs: nounwind uwtable
define internal i32 @g(double noundef %0, ptr noundef %1, ptr noundef %2, ptr noundef %3) #0 {
  %5 = alloca double, align 8
  %6 = alloca ptr, align 8
  %7 = alloca ptr, align 8
  %8 = alloca ptr, align 8
  %9 = alloca double, align 8
  %10 = alloca double, align 8
  store double %0, ptr %5, align 8, !tbaa !25
  store ptr %1, ptr %6, align 8, !tbaa !4
  store ptr %2, ptr %7, align 8, !tbaa !33
  store ptr %3, ptr %8, align 8, !tbaa !13
  call void @llvm.lifetime.start.p0(i64 8, ptr %9) #5
  call void @llvm.lifetime.start.p0(i64 8, ptr %10) #5
  %11 = load ptr, ptr %6, align 8, !tbaa !4
  %12 = getelementptr inbounds nuw %struct._generic_N_Vector, ptr %11, i32 0, i32 0
  %13 = load ptr, ptr %12, align 8, !tbaa !18
  %14 = getelementptr inbounds nuw %struct._N_VectorContent_Serial, ptr %13, i32 0, i32 2
  %15 = load ptr, ptr %14, align 8, !tbaa !21
  %16 = getelementptr inbounds double, ptr %15, i64 0
  %17 = load double, ptr %16, align 8, !tbaa !25
  store double %17, ptr %9, align 8, !tbaa !25
  %18 = load ptr, ptr %6, align 8, !tbaa !4
  %19 = getelementptr inbounds nuw %struct._generic_N_Vector, ptr %18, i32 0, i32 0
  %20 = load ptr, ptr %19, align 8, !tbaa !18
  %21 = getelementptr inbounds nuw %struct._N_VectorContent_Serial, ptr %20, i32 0, i32 2
  %22 = load ptr, ptr %21, align 8, !tbaa !21
  %23 = getelementptr inbounds double, ptr %22, i64 2
  %24 = load double, ptr %23, align 8, !tbaa !25
  store double %24, ptr %10, align 8, !tbaa !25
  %25 = load double, ptr %9, align 8, !tbaa !25
  %26 = fsub double %25, 1.000000e-04
  %27 = load ptr, ptr %7, align 8, !tbaa !33
  %28 = getelementptr inbounds double, ptr %27, i64 0
  store double %26, ptr %28, align 8, !tbaa !25
  %29 = load double, ptr %10, align 8, !tbaa !25
  %30 = fsub double %29, 1.000000e-02
  %31 = load ptr, ptr %7, align 8, !tbaa !33
  %32 = getelementptr inbounds double, ptr %31, i64 1
  store double %30, ptr %32, align 8, !tbaa !25
  call void @llvm.lifetime.end.p0(i64 8, ptr %10) #5
  call void @llvm.lifetime.end.p0(i64 8, ptr %9) #5
  ret i32 0
}